; Function Attrs: mustprogress uwtable
define void @_ZN2cv3dnn14dnn4_v202412239MishLayer6createERKNS1_11LayerParamsE(ptr dead_on_unwind noalias writable sret(%"struct.cv::Ptr.36") align 8 %0, ptr noundef nonnull align 8 dereferenceable(136) %1) local_unnamed_addr #3 align 2 personality ptr @__gxx_personality_v0 {
  %3 = tail call noalias noundef nonnull dereferenceable(104) ptr @_Znwm(i64 noundef 104) #27
  invoke void @_ZN2cv3dnn14dnn4_v202412235LayerC2Ev(ptr noundef nonnull align 8 dereferenceable(104) %3)
          to label %4 unwind label %25

4:                                                ; preds = %2
  store ptr getelementptr inbounds nuw inrange(-16, 288) (i8, ptr @_ZTVN2cv3dnn16ElementWiseLayerINS0_11MishFunctorEEE, i64 16), ptr %3, align 8, !tbaa !22
  %5 = getelementptr inbounds nuw i8, ptr %3, i64 100
  store i32 1, ptr %5, align 4
  store ptr %3, ptr %0, align 8, !tbaa !83
  %6 = getelementptr inbounds nuw i8, ptr %0, i64 8
  store ptr null, ptr %6, align 8, !tbaa !29
  %7 = invoke noalias noundef nonnull dereferenceable(24) ptr @_Znwm(i64 noundef 24) #27
          to label %21 unwind label %8

8:                                                ; preds = %4
  %9 = landingpad { ptr, i32 }
          catch ptr null
  %10 = extractvalue { ptr, i32 } %9, 0
  %11 = tail call ptr @__cxa_begin_catch(ptr %10) #25
  %12 = load ptr, ptr %3, align 8, !tbaa !22
  %13 = getelementptr inbounds nuw i8, ptr %12, i64 8
  %14 = load ptr, ptr %13, align 8
  tail call void %14(ptr noundef nonnull align 8 dereferenceable(104) %3) #25
  invoke void @__cxa_rethrow() #28
          to label %20 unwind label %15

15:                                               ; preds = %8
  %16 = landingpad { ptr, i32 }
          cleanup
  invoke void @__cxa_end_catch()
          to label %.body unwind label %17

17:                                               ; preds = %15
  %18 = landingpad { ptr, i32 }
          catch ptr null
  %19 = extractvalue { ptr, i32 } %18, 0
  tail call void @__clang_call_terminate(ptr %19) #29
  unreachable

20:                                               ; preds = %8
  unreachable

21:                                               ; preds = %4
  %22 = getelementptr inbounds nuw i8, ptr %7, i64 8
  store i32 1, ptr %22, align 8, !tbaa !30
  %23 = getelementptr inbounds nuw i8, ptr %7, i64 12
  store i32 1, ptr %23, align 4, !tbaa !33
  store ptr getelementptr inbounds nuw inrange(-16, 40) (i8, ptr @_ZTVSt15_Sp_counted_ptrIPN2cv3dnn16ElementWiseLayerINS1_11MishFunctorEEELN9__gnu_cxx12_Lock_policyE2EE, i64 16), ptr %7, align 8, !tbaa !22
  %24 = getelementptr inbounds nuw i8, ptr %7, i64 16
  store ptr %3, ptr %24, align 8, !tbaa !86
  store ptr %7, ptr %6, align 8, !tbaa !29
  invoke void @_ZN2cv3dnn14dnn4_v202412235Layer13setParamsFromERKNS1_11LayerParamsE(ptr noundef nonnull align 8 dereferenceable(100) %3, ptr noundef nonnull align 8 dereferenceable(136) %1)
          to label %29 unwind label %27

25:                                               ; preds = %2
  %26 = landingpad { ptr, i32 }
          cleanup
  tail call void @_ZdlPv(ptr noundef nonnull %3) #26
  br label %.body

27:                                               ; preds = %21
  %28 = landingpad { ptr, i32 }
          cleanup
  tail call void @_ZNSt12__shared_ptrIN2cv3dnn14dnn4_v202412239MishLayerELN9__gnu_cxx12_Lock_policyE2EED2Ev(ptr noundef nonnull align 8 dereferenceable(16) %0) #25
  br label %.body

29:                                               ; preds = %21
  ret void

.body:                                            ; preds = %15, %25, %27
  %.pn = phi { ptr, i32 } [ %28, %27 ], [ %26, %25 ], [ %16, %15 ]
  resume { ptr, i32 } %.pn
}